target datalayout = "e-m:e-p270:32:32-p271:32:32-p272:64:64-i64:64-i128:128-f80:128-n8:16:32:64-S128"
target triple = "x86_64-pc-linux-gnu"

%class.anon.183 = type { ptr, ptr }

; Function Attrs: mustprogress nounwind uwtable
define internal noundef zeroext i1 @"_ZZL40tryToReuseConstantFromSelectInComparisonRN4llvm10SelectInstERNS_8ICmpInstERNS_16InstCombinerImplEENK3$_0clEPNS_8ConstantE"(ptr noundef nonnull align 8 dereferenceable(16) %0, ptr noundef %1) #0 align 2 {
  %3 = alloca ptr, align 8
  %4 = alloca ptr, align 8
  store ptr %0, ptr %3, align 8
  store ptr %1, ptr %4, align 8
  %5 = load ptr, ptr %3, align 8
  %6 = load ptr, ptr %4, align 8
  %7 = getelementptr inbounds nuw %class.anon.183, ptr %5, i32 0, i32 0
  %8 = load ptr, ptr %7, align 8
  %9 = call noundef zeroext i1 @_ZNK4llvm8Constant18isElementWiseEqualEPNS_5ValueE(ptr noundef nonnull align 8 dereferenceable(24) %6, ptr noundef %8)
  br i1 %9, label %15, label %10

10:                                               ; preds = %2
  %11 = load ptr, ptr %4, align 8
  %12 = getelementptr inbounds nuw %class.anon.183, ptr %5, i32 0, i32 1
  %13 = load ptr, ptr %12, align 8
  %14 = call noundef zeroext i1 @_ZNK4llvm8Constant18isElementWiseEqualEPNS_5ValueE(ptr noundef nonnull align 8 dereferenceable(24) %11, ptr noundef %13)
  br label %15

15:                                               ; preds = %10, %2
  %16 = phi i1 [ true, %2 ], [ %14, %10 ]
  ret i1 %16
}