; Function Attrs: mustprogress nounwind uwtable
define internal fastcc noundef zeroext i1 @"_ZZL40tryToReuseConstantFromSelectInComparisonRN4llvm10SelectInstERNS_8ICmpInstERNS_16InstCombinerImplEENK3$_0clEPNS_8ConstantE"(ptr nocapture noundef nonnull readonly align 8 dereferenceable(16) %0, ptr noundef nonnull %1) unnamed_addr #0 align 2 {
  %3 = load ptr, ptr %0, align 8
  %4 = tail call noundef zeroext i1 @_ZNK4llvm8Constant18isElementWiseEqualEPNS_5ValueE(ptr noundef nonnull align 8 dereferenceable(24) %1, ptr noundef %3) #17
  br i1 %4, label %9, label %5

5:                                                ; preds = %2
  %6 = getelementptr inbounds nuw i8, ptr %0, i64 8
  %7 = load ptr, ptr %6, align 8
  %8 = tail call noundef zeroext i1 @_ZNK4llvm8Constant18isElementWiseEqualEPNS_5ValueE(ptr noundef nonnull align 8 dereferenceable(24) %1, ptr noundef %7) #17
  br label %9

9:                                                ; preds = %5, %2
  %10 = phi i1 [ true, %2 ], [ %8, %5 ]
  ret i1 %10
}